target datalayout = "e-m:e-p270:32:32-p271:32:32-p272:64:64-i64:64-i128:128-f80:128-n8:16:32:64-S128"
target triple = "x86_64-unknown-linux-gnu"

%"class.std::shared_ptr" = type { %"class.std::__shared_ptr" }
%"class.std::__shared_ptr" = type { ptr, %"class.std::__shared_count" }
%"class.std::__shared_count" = type { ptr }
%"class.std::shared_ptr.3" = type { %"class.std::__shared_ptr.4" }
%"class.std::__shared_ptr.4" = type { ptr, %"class.std::__shared_count" }
%"class.std::vector.9" = type { %"struct.std::_Vector_base.10" }
%"struct.std::_Vector_base.10" = type { %"struct.std::_Vector_base<std::shared_ptr<arrow::Buffer>, std::allocator<std::shared_ptr<arrow::Buffer>>>::_Vector_impl" }
%"struct.std::_Vector_base<std::shared_ptr<arrow::Buffer>, std::allocator<std::shared_ptr<arrow::Buffer>>>::_Vector_impl" = type { %"struct.std::_Vector_base<std::shared_ptr<arrow::Buffer>, std::allocator<std::shared_ptr<arrow::Buffer>>>::_Vector_impl_data" }
%"struct.std::_Vector_base<std::shared_ptr<arrow::Buffer>, std::allocator<std::shared_ptr<arrow::Buffer>>>::_Vector_impl_data" = type { ptr, ptr, ptr }
%"class.std::shared_ptr.6" = type { %"class.std::__shared_ptr.7" }
%"class.std::__shared_ptr.7" = type { ptr, %"class.std::__shared_count" }
%"struct.arrow::ArrayData" = type { %"class.std::shared_ptr.3", i64, %"struct.std::atomic.14", i64, %"class.std::vector.9", %"class.std::vector.16", %"class.std::shared_ptr" }
%"struct.std::atomic.14" = type { %"struct.std::__atomic_base.15" }
%"struct.std::__atomic_base.15" = type { i64 }
%"class.std::vector.16" = type { %"struct.std::_Vector_base.17" }
%"struct.std::_Vector_base.17" = type { %"struct.std::_Vector_base<std::shared_ptr<arrow::ArrayData>, std::allocator<std::shared_ptr<arrow::ArrayData>>>::_Vector_impl" }
%"struct.std::_Vector_base<std::shared_ptr<arrow::ArrayData>, std::allocator<std::shared_ptr<arrow::ArrayData>>>::_Vector_impl" = type { %"struct.std::_Vector_base<std::shared_ptr<arrow::ArrayData>, std::allocator<std::shared_ptr<arrow::ArrayData>>>::_Vector_impl_data" }
%"struct.std::_Vector_base<std::shared_ptr<arrow::ArrayData>, std::allocator<std::shared_ptr<arrow::ArrayData>>>::_Vector_impl_data" = type { ptr, ptr, ptr }
%"class.arrow::Array" = type { ptr, %"class.std::shared_ptr", ptr }
%"class.std::shared_ptr.0" = type { %"class.std::__shared_ptr.1" }
%"class.std::__shared_ptr.1" = type { ptr, %"class.std::__shared_count" }
%"class.arrow::BaseListViewArray.52" = type { %"class.arrow::VarLengthListLikeArray.53", ptr }
%"class.arrow::VarLengthListLikeArray.53" = type { %"class.arrow::Array", ptr, %"class.std::shared_ptr.0", ptr }
%"class.arrow::Buffer" = type { ptr, i8, i8, ptr, i64, i64, i8, %"class.std::shared_ptr.6", %"class.std::shared_ptr.131" }
%"class.std::shared_ptr.131" = type { %"class.std::__shared_ptr.132" }
%"class.std::__shared_ptr.132" = type { ptr, %"class.std::__shared_count" }

; Function Attrs: mustprogress nounwind uwtable
define linkonce_odr noundef ptr @_ZNKSt12__shared_ptrIN5arrow6BufferELN9__gnu_cxx12_Lock_policyE2EE3getEv(ptr noundef nonnull align 8 dereferenceable(16) %this) #1 comdat align 2 {
entry:
  %this.addr = alloca ptr, align 8
  store ptr %this, ptr %this.addr, align 8
  %this1 = load ptr, ptr %this.addr, align 8
  %_M_ptr = getelementptr inbounds %"class.std::__shared_ptr.7", ptr %this1, i32 0, i32 0
  %0 = load ptr, ptr %_M_ptr, align 8
  ret ptr %0
}

; Function Attrs: mustprogress nounwind uwtable
define linkonce_odr noundef ptr @_ZNKSt19__shared_ptr_accessIN5arrow6BufferELN9__gnu_cxx12_Lock_policyE2ELb0ELb0EE6_M_getEv(ptr noundef nonnull align 1 dereferenceable(1) %this) #1 comdat align 2 {
entry:
  %this.addr = alloca ptr, align 8
  store ptr %this, ptr %this.addr, align 8
  %this1 = load ptr, ptr %this.addr, align 8
  %call = call noundef ptr @_ZNKSt12__shared_ptrIN5arrow6BufferELN9__gnu_cxx12_Lock_policyE2EE3getEv(ptr noundef nonnull align 8 dereferenceable(16) %this1) #12
  ret ptr %call
}

; Function Attrs: mustprogress nounwind uwtable
define linkonce_odr noundef ptr @_ZNKSt12__shared_ptrIN5arrow9ArrayDataELN9__gnu_cxx12_Lock_policyE2EE3getEv(ptr noundef nonnull align 8 dereferenceable(16) %this) #1 comdat align 2 {
entry:
  %this.addr = alloca ptr, align 8
  store ptr %this, ptr %this.addr, align 8
  %this1 = load ptr, ptr %this.addr, align 8
  %_M_ptr = getelementptr inbounds %"class.std::__shared_ptr", ptr %this1, i32 0, i32 0
  %0 = load ptr, ptr %_M_ptr, align 8
  ret ptr %0
}

; Function Attrs: mustprogress nounwind uwtable
define linkonce_odr noundef ptr @_ZNK5arrow6Buffer4dataEv(ptr noundef nonnull align 8 dereferenceable(80) %this) #1 comdat align 2 {
entry:
  %this.addr = alloca ptr, align 8
  store ptr %this, ptr %this.addr, align 8
  %this1 = load ptr, ptr %this.addr, align 8
  %is_cpu_ = getelementptr inbounds %"class.arrow::Buffer", ptr %this1, i32 0, i32 2
  %0 = load i8, ptr %is_cpu_, align 1
  %tobool = trunc i8 %0 to i1
  %lnot = xor i1 %tobool, true
  %lnot2 = xor i1 %lnot, true
  br i1 %lnot2, label %cond.true, label %cond.false

cond.true:                                        ; preds = %entry
  %data_ = getelementptr inbounds %"class.arrow::Buffer", ptr %this1, i32 0, i32 3
  %1 = load ptr, ptr %data_, align 8
  br label %cond.end

cond.false:                                       ; preds = %entry
  br label %cond.end

cond.end:                                         ; preds = %cond.false, %cond.true
  %cond = phi ptr [ %1, %cond.true ], [ null, %cond.false ]
  ret ptr %cond
}

; Function Attrs: mustprogress nounwind uwtable
define linkonce_odr noundef zeroext i1 @_ZNK5arrow6Buffer6is_cpuEv(ptr noundef nonnull align 8 dereferenceable(80) %this) #1 comdat align 2 {
entry:
  %this.addr = alloca ptr, align 8
  store ptr %this, ptr %this.addr, align 8
  %this1 = load ptr, ptr %this.addr, align 8
  %is_cpu_ = getelementptr inbounds %"class.arrow::Buffer", ptr %this1, i32 0, i32 2
  %0 = load i8, ptr %is_cpu_, align 1
  %tobool = trunc i8 %0 to i1
  ret i1 %tobool
}

; Function Attrs: mustprogress nounwind uwtable
define linkonce_odr noundef ptr @_ZNKSt19__shared_ptr_accessIN5arrow6BufferELN9__gnu_cxx12_Lock_policyE2ELb0ELb0EEptEv(ptr noundef nonnull align 1 dereferenceable(1) %this) #1 comdat align 2 {
entry:
  %this.addr = alloca ptr, align 8
  store ptr %this, ptr %this.addr, align 8
  %this1 = load ptr, ptr %this.addr, align 8
  %call = call noundef ptr @_ZNKSt19__shared_ptr_accessIN5arrow6BufferELN9__gnu_cxx12_Lock_policyE2ELb0ELb0EE6_M_getEv(ptr noundef nonnull align 1 dereferenceable(1) %this1) #12
  ret ptr %call
}

; Function Attrs: mustprogress nounwind uwtable
define linkonce_odr noundef zeroext i1 @_ZNKSt12__shared_ptrIN5arrow6BufferELN9__gnu_cxx12_Lock_policyE2EEcvbEv(ptr noundef nonnull align 8 dereferenceable(16) %this) #1 comdat align 2 {
entry:
  %this.addr = alloca ptr, align 8
  store ptr %this, ptr %this.addr, align 8
  %this1 = load ptr, ptr %this.addr, align 8
  %_M_ptr = getelementptr inbounds %"class.std::__shared_ptr.7", ptr %this1, i32 0, i32 0
  %0 = load ptr, ptr %_M_ptr, align 8
  %cmp = icmp ne ptr %0, null
  ret i1 %cmp
}

; Function Attrs: mustprogress nounwind uwtable
define linkonce_odr noundef nonnull align 8 dereferenceable(16) ptr @_ZNKSt6vectorISt10shared_ptrIN5arrow6BufferEESaIS3_EEixEm(ptr noundef nonnull align 8 dereferenceable(24) %this, i64 noundef %__n) #1 comdat align 2 {
entry:
  %this.addr = alloca ptr, align 8
  %__n.addr = alloca i64, align 8
  store ptr %this, ptr %this.addr, align 8
  store i64 %__n, ptr %__n.addr, align 8
  %this1 = load ptr, ptr %this.addr, align 8
  %_M_impl = getelementptr inbounds %"struct.std::_Vector_base.10", ptr %this1, i32 0, i32 0
  %_M_start = getelementptr inbounds %"struct.std::_Vector_base<std::shared_ptr<arrow::Buffer>, std::allocator<std::shared_ptr<arrow::Buffer>>>::_Vector_impl_data", ptr %_M_impl, i32 0, i32 0
  %0 = load ptr, ptr %_M_start, align 8
  %1 = load i64, ptr %__n.addr, align 8
  %add.ptr = getelementptr inbounds %"class.std::shared_ptr.6", ptr %0, i64 %1
  ret ptr %add.ptr
}

; Function Attrs: mustprogress nounwind uwtable
define linkonce_odr noundef ptr @_ZNKSt19__shared_ptr_accessIN5arrow9ArrayDataELN9__gnu_cxx12_Lock_policyE2ELb0ELb0EE6_M_getEv(ptr noundef nonnull align 1 dereferenceable(1) %this) #1 comdat align 2 {
entry:
  %this.addr = alloca ptr, align 8
  store ptr %this, ptr %this.addr, align 8
  %this1 = load ptr, ptr %this.addr, align 8
  %call = call noundef ptr @_ZNKSt12__shared_ptrIN5arrow9ArrayDataELN9__gnu_cxx12_Lock_policyE2EE3getEv(ptr noundef nonnull align 8 dereferenceable(16) %this1) #12
  ret ptr %call
}

; Function Attrs: mustprogress nounwind uwtable
define linkonce_odr noundef ptr @_ZNK5arrow9ArrayData13GetValuesSafeIlEEPKT_il(ptr noundef nonnull align 8 dereferenceable(104) %this, i32 noundef %i, i64 noundef %absolute_offset) #1 comdat align 2 {
entry:
  %retval = alloca ptr, align 8
  %this.addr = alloca ptr, align 8
  %i.addr = alloca i32, align 4
  %absolute_offset.addr = alloca i64, align 8
  store ptr %this, ptr %this.addr, align 8
  store i32 %i, ptr %i.addr, align 4
  store i64 %absolute_offset, ptr %absolute_offset.addr, align 8
  %this1 = load ptr, ptr %this.addr, align 8
  %buffers = getelementptr inbounds %"struct.arrow::ArrayData", ptr %this1, i32 0, i32 4
  %0 = load i32, ptr %i.addr, align 4
  %conv = sext i32 %0 to i64
  %call = call noundef nonnull align 8 dereferenceable(16) ptr @_ZNKSt6vectorISt10shared_ptrIN5arrow6BufferEESaIS3_EEixEm(ptr noundef nonnull align 8 dereferenceable(24) %buffers, i64 noundef %conv) #12
  %call2 = call noundef zeroext i1 @_ZNKSt12__shared_ptrIN5arrow6BufferELN9__gnu_cxx12_Lock_policyE2EEcvbEv(ptr noundef nonnull align 8 dereferenceable(16) %call) #12
  br i1 %call2, label %land.lhs.true, label %if.else

land.lhs.true:                                    ; preds = %entry
  %buffers3 = getelementptr inbounds %"struct.arrow::ArrayData", ptr %this1, i32 0, i32 4
  %1 = load i32, ptr %i.addr, align 4
  %conv4 = sext i32 %1 to i64
  %call5 = call noundef nonnull align 8 dereferenceable(16) ptr @_ZNKSt6vectorISt10shared_ptrIN5arrow6BufferEESaIS3_EEixEm(ptr noundef nonnull align 8 dereferenceable(24) %buffers3, i64 noundef %conv4) #12
  %call6 = call noundef ptr @_ZNKSt19__shared_ptr_accessIN5arrow6BufferELN9__gnu_cxx12_Lock_policyE2ELb0ELb0EEptEv(ptr noundef nonnull align 1 dereferenceable(1) %call5) #12
  %call7 = call noundef zeroext i1 @_ZNK5arrow6Buffer6is_cpuEv(ptr noundef nonnull align 8 dereferenceable(80) %call6)
  br i1 %call7, label %if.then, label %if.else

if.then:                                          ; preds = %land.lhs.true
  %buffers8 = getelementptr inbounds %"struct.arrow::ArrayData", ptr %this1, i32 0, i32 4
  %2 = load i32, ptr %i.addr, align 4
  %conv9 = sext i32 %2 to i64
  %call10 = call noundef nonnull align 8 dereferenceable(16) ptr @_ZNKSt6vectorISt10shared_ptrIN5arrow6BufferEESaIS3_EEixEm(ptr noundef nonnull align 8 dereferenceable(24) %buffers8, i64 noundef %conv9) #12
  %call11 = call noundef ptr @_ZNKSt19__shared_ptr_accessIN5arrow6BufferELN9__gnu_cxx12_Lock_policyE2ELb0ELb0EEptEv(ptr noundef nonnull align 1 dereferenceable(1) %call10) #12
  %call12 = call noundef ptr @_ZNK5arrow6Buffer4dataEv(ptr noundef nonnull align 8 dereferenceable(80) %call11)
  %3 = load i64, ptr %absolute_offset.addr, align 8
  %add.ptr = getelementptr inbounds i64, ptr %call12, i64 %3
  store ptr %add.ptr, ptr %retval, align 8
  br label %return

if.else:                                          ; preds = %land.lhs.true, %entry
  store ptr null, ptr %retval, align 8
  br label %return

return:                                           ; preds = %if.else, %if.then
  %4 = load ptr, ptr %retval, align 8
  ret ptr %4
}

; Function Attrs: mustprogress nounwind uwtable
define linkonce_odr noundef ptr @_ZNKSt19__shared_ptr_accessIN5arrow9ArrayDataELN9__gnu_cxx12_Lock_policyE2ELb0ELb0EEptEv(ptr noundef nonnull align 1 dereferenceable(1) %this) #1 comdat align 2 {
entry:
  %this.addr = alloca ptr, align 8
  store ptr %this, ptr %this.addr, align 8
  %this1 = load ptr, ptr %this.addr, align 8
  %call = call noundef ptr @_ZNKSt19__shared_ptr_accessIN5arrow9ArrayDataELN9__gnu_cxx12_Lock_policyE2ELb0ELb0EE6_M_getEv(ptr noundef nonnull align 1 dereferenceable(1) %this1) #12
  ret ptr %call
}

; Function Attrs: mustprogress uwtable
define void @_ZN5arrow18LargeListViewArray7SetDataERKSt10shared_ptrINS_9ArrayDataEE(ptr noundef nonnull align 8 dereferenceable(72) %this, ptr noundef nonnull align 8 dereferenceable(16) %data) #0 align 2 {
entry:
  %this.addr = alloca ptr, align 8
  %data.addr = alloca ptr, align 8
  store ptr %this, ptr %this.addr, align 8
  store ptr %data, ptr %data.addr, align 8
  %this1 = load ptr, ptr %this.addr, align 8
  %0 = load ptr, ptr %data.addr, align 8
  call void @_ZN5arrow8internal11SetListDataINS_17LargeListViewTypeEEEvPNS_22VarLengthListLikeArrayIT_EERKSt10shared_ptrINS_9ArrayDataEENS_4Type4typeE(ptr noundef %this1, ptr noundef nonnull align 8 dereferenceable(16) %0, i32 noundef 42)
  %1 = load ptr, ptr %data.addr, align 8
  %call = call noundef ptr @_ZNKSt19__shared_ptr_accessIN5arrow9ArrayDataELN9__gnu_cxx12_Lock_policyE2ELb0ELb0EEptEv(ptr noundef nonnull align 1 dereferenceable(1) %1) #12
  %call2 = call noundef ptr @_ZNK5arrow9ArrayData13GetValuesSafeIlEEPKT_il(ptr noundef nonnull align 8 dereferenceable(104) %call, i32 noundef 2, i64 noundef 0)
  %raw_value_sizes_ = getelementptr inbounds %"class.arrow::BaseListViewArray.52", ptr %this1, i32 0, i32 1
  store ptr %call2, ptr %raw_value_sizes_, align 8
  ret void
}