; Function Attrs: mustprogress uwtable
define void @_ZN5arrow18LargeListViewArray7SetDataERKSt10shared_ptrINS_9ArrayDataEE(ptr noundef nonnull align 8 dereferenceable(72) %this, ptr noundef nonnull align 8 dereferenceable(16) %data) local_unnamed_addr #0 align 2 {
entry:
  tail call void @_ZN5arrow8internal11SetListDataINS_17LargeListViewTypeEEEvPNS_22VarLengthListLikeArrayIT_EERKSt10shared_ptrINS_9ArrayDataEENS_4Type4typeE(ptr noundef nonnull %this, ptr noundef nonnull align 8 dereferenceable(16) %data, i32 noundef 42)
  %0 = load ptr, ptr %data, align 8
  %buffers.i = getelementptr inbounds i8, ptr %0, i64 40
  %1 = load ptr, ptr %buffers.i, align 8
  %add.ptr.i.i = getelementptr inbounds i8, ptr %1, i64 32
  %2 = load ptr, ptr %add.ptr.i.i, align 8
  %cmp.i.not.i = icmp eq ptr %2, null
  br i1 %cmp.i.not.i, label %_ZNK5arrow9ArrayData13GetValuesSafeIlEEPKT_il.exit, label %land.lhs.true.i

land.lhs.true.i:                                  ; preds = %entry
  %is_cpu_.i.i = getelementptr inbounds i8, ptr %2, i64 9
  %3 = load i8, ptr %is_cpu_.i.i, align 1
  %4 = and i8 %3, 1
  %tobool.i.not.i = icmp eq i8 %4, 0
  br i1 %tobool.i.not.i, label %_ZNK5arrow9ArrayData13GetValuesSafeIlEEPKT_il.exit, label %if.then.i

if.then.i:                                        ; preds = %land.lhs.true.i
  %data_.i.i = getelementptr inbounds i8, ptr %2, i64 16
  %5 = load ptr, ptr %data_.i.i, align 8
  br label %_ZNK5arrow9ArrayData13GetValuesSafeIlEEPKT_il.exit

_ZNK5arrow9ArrayData13GetValuesSafeIlEEPKT_il.exit: ; preds = %entry, %land.lhs.true.i, %if.then.i
  %retval.0.i = phi ptr [ %5, %if.then.i ], [ null, %land.lhs.true.i ], [ null, %entry ]
  %raw_value_sizes_ = getelementptr inbounds i8, ptr %this, i64 64
  store ptr %retval.0.i, ptr %raw_value_sizes_, align 8
  ret void
}